target datalayout = "e-m:e-p270:32:32-p271:32:32-p272:64:64-i64:64-i128:128-f80:128-n8:16:32:64-S128"
target triple = "x86_64-pc-linux-gnu"

%struct.psa_its_file_header_t = type { [8 x i8], [4 x i8], [4 x i8] }
%struct.psa_storage_info_t = type { i32, i32 }

@.str = private unnamed_addr constant [9 x i8] c"PSA\00ITS\00\00", align 1
@.str.3 = private unnamed_addr constant [3 x i8] c"rb\00", align 1
@.str.4 = private unnamed_addr constant [13 x i8] c"%s%08x%08x%s\00", align 1
@.str.5 = private unnamed_addr constant [1 x i8] zeroinitializer, align 1
@.str.6 = private unnamed_addr constant [9 x i8] c".psa_its\00", align 1

; Function Attrs: alwaysinline nounwind uwtable
define internal i32 @mbedtls_get_unaligned_uint32(ptr noundef %0) #4 {
  %2 = alloca ptr, align 8
  %3 = alloca i32, align 4
  store ptr %0, ptr %2, align 8, !tbaa !20
  call void @llvm.lifetime.start.p0(i64 4, ptr %3) #7
  %4 = load ptr, ptr %2, align 8, !tbaa !20
  call void @llvm.memcpy.p0.p0.i64(ptr align 4 %3, ptr align 1 %4, i64 4, i1 false)
  %5 = load i32, ptr %3, align 4, !tbaa !12
  call void @llvm.lifetime.end.p0(i64 4, ptr %3) #7
  ret i32 %5
}

; Function Attrs: nounwind uwtable
define internal void @psa_its_fill_filename(i64 noundef %0, ptr noundef %1) #0 {
  %3 = alloca i64, align 8
  %4 = alloca ptr, align 8
  store i64 %0, ptr %3, align 8, !tbaa !3
  store ptr %1, ptr %4, align 8, !tbaa !23
  %5 = load ptr, ptr %4, align 8, !tbaa !23
  %6 = load i64, ptr %3, align 8, !tbaa !3
  %7 = lshr i64 %6, 32
  %8 = trunc i64 %7 to i32
  %9 = load i64, ptr %3, align 8, !tbaa !3
  %10 = and i64 %9, 4294967295
  %11 = trunc i64 %10 to i32
  %12 = call i32 (ptr, i64, ptr, ...) @snprintf(ptr noundef %5, i64 noundef 25, ptr noundef @.str.4, ptr noundef @.str.5, i32 noundef %8, i32 noundef %11, ptr noundef @.str.6) #7
  ret void
}

; Function Attrs: nounwind uwtable
define internal i32 @psa_its_read_file(i64 noundef %0, ptr noundef %1, ptr noundef %2) #0 {
  %4 = alloca i32, align 4
  %5 = alloca i64, align 8
  %6 = alloca ptr, align 8
  %7 = alloca ptr, align 8
  %8 = alloca [25 x i8], align 16
  %9 = alloca %struct.psa_its_file_header_t, align 1
  %10 = alloca i64, align 8
  %11 = alloca i32, align 4
  store i64 %0, ptr %5, align 8, !tbaa !3
  store ptr %1, ptr %6, align 8, !tbaa !7
  store ptr %2, ptr %7, align 8, !tbaa !14
  call void @llvm.lifetime.start.p0(i64 25, ptr %8) #7
  call void @llvm.lifetime.start.p0(i64 16, ptr %9) #7
  call void @llvm.lifetime.start.p0(i64 8, ptr %10) #7
  %12 = load ptr, ptr %7, align 8, !tbaa !14
  store ptr null, ptr %12, align 8, !tbaa !10
  %13 = load i64, ptr %5, align 8, !tbaa !3
  %14 = getelementptr inbounds [25 x i8], ptr %8, i64 0, i64 0
  call void @psa_its_fill_filename(i64 noundef %13, ptr noundef %14)
  %15 = getelementptr inbounds [25 x i8], ptr %8, i64 0, i64 0
  %16 = call noalias ptr @fopen(ptr noundef %15, ptr noundef @.str.3)
  %17 = load ptr, ptr %7, align 8, !tbaa !14
  store ptr %16, ptr %17, align 8, !tbaa !10
  %18 = load ptr, ptr %7, align 8, !tbaa !14
  %19 = load ptr, ptr %18, align 8, !tbaa !10
  %20 = icmp eq ptr %19, null
  br i1 %20, label %21, label %22

21:                                               ; preds = %3
  store i32 -140, ptr %4, align 4
  store i32 1, ptr %11, align 4
  br label %50

22:                                               ; preds = %3
  %23 = load ptr, ptr %7, align 8, !tbaa !14
  %24 = load ptr, ptr %23, align 8, !tbaa !10
  call void @setbuf(ptr noundef %24, ptr noundef null) #7
  %25 = load ptr, ptr %7, align 8, !tbaa !14
  %26 = load ptr, ptr %25, align 8, !tbaa !10
  %27 = call i64 @fread(ptr noundef %9, i64 noundef 1, i64 noundef 16, ptr noundef %26)
  store i64 %27, ptr %10, align 8, !tbaa !3
  %28 = load i64, ptr %10, align 8, !tbaa !3
  %29 = icmp ne i64 %28, 16
  br i1 %29, label %30, label %31

30:                                               ; preds = %22
  store i32 -152, ptr %4, align 4
  store i32 1, ptr %11, align 4
  br label %50

31:                                               ; preds = %22
  %32 = getelementptr inbounds nuw %struct.psa_its_file_header_t, ptr %9, i32 0, i32 0
  %33 = getelementptr inbounds [8 x i8], ptr %32, i64 0, i64 0
  %34 = call i32 @memcmp(ptr noundef %33, ptr noundef @.str, i64 noundef 8) #8
  %35 = icmp ne i32 %34, 0
  br i1 %35, label %36, label %37

36:                                               ; preds = %31
  store i32 -152, ptr %4, align 4
  store i32 1, ptr %11, align 4
  br label %50

37:                                               ; preds = %31
  %38 = getelementptr inbounds nuw %struct.psa_its_file_header_t, ptr %9, i32 0, i32 1
  %39 = getelementptr inbounds [4 x i8], ptr %38, i64 0, i64 0
  %40 = getelementptr inbounds i8, ptr %39, i64 0
  %41 = call i32 @mbedtls_get_unaligned_uint32(ptr noundef %40)
  %42 = load ptr, ptr %6, align 8, !tbaa !7
  %43 = getelementptr inbounds nuw %struct.psa_storage_info_t, ptr %42, i32 0, i32 0
  store i32 %41, ptr %43, align 4, !tbaa !17
  %44 = getelementptr inbounds nuw %struct.psa_its_file_header_t, ptr %9, i32 0, i32 2
  %45 = getelementptr inbounds [4 x i8], ptr %44, i64 0, i64 0
  %46 = getelementptr inbounds i8, ptr %45, i64 0
  %47 = call i32 @mbedtls_get_unaligned_uint32(ptr noundef %46)
  %48 = load ptr, ptr %6, align 8, !tbaa !7
  %49 = getelementptr inbounds nuw %struct.psa_storage_info_t, ptr %48, i32 0, i32 1
  store i32 %47, ptr %49, align 4, !tbaa !19
  store i32 0, ptr %4, align 4
  store i32 1, ptr %11, align 4
  br label %50

50:                                               ; preds = %37, %36, %30, %21
  call void @llvm.lifetime.end.p0(i64 8, ptr %10) #7
  call void @llvm.lifetime.end.p0(i64 16, ptr %9) #7
  call void @llvm.lifetime.end.p0(i64 25, ptr %8) #7
  %51 = load i32, ptr %4, align 4
  ret i32 %51
}