; Function Attrs: nofree nounwind uwtable
define internal fastcc range(i32 -152, 1) i32 @psa_its_read_file(i64 noundef %0, ptr noundef writeonly captures(none) %1, ptr noundef nonnull captures(none) initializes((0, 8)) %2) unnamed_addr #0 {
  %4 = alloca [25 x i8], align 16
  %5 = alloca %struct.psa_its_file_header_t, align 1
  call void @llvm.lifetime.start.p0(i64 25, ptr nonnull %4) #4
  call void @llvm.lifetime.start.p0(i64 16, ptr nonnull %5) #4
  store ptr null, ptr %2, align 8, !tbaa !3
  %6 = lshr i64 %0, 32
  %7 = trunc nuw i64 %6 to i32
  %8 = trunc i64 %0 to i32
  %9 = call i32 (ptr, i64, ptr, ...) @snprintf(ptr noundef nonnull dereferenceable(1) %4, i64 noundef 25, ptr noundef nonnull @.str.4, ptr noundef nonnull @.str.5, i32 noundef %7, i32 noundef %8, ptr noundef nonnull @.str.6) #4
  %10 = call noalias ptr @fopen(ptr noundef nonnull %4, ptr noundef nonnull @.str.3)
  store ptr %10, ptr %2, align 8, !tbaa !3
  %11 = icmp eq ptr %10, null
  br i1 %11, label %20, label %12

12:                                               ; preds = %3
  tail call void @setbuf(ptr noundef nonnull %10, ptr noundef null) #4
  %13 = load ptr, ptr %2, align 8, !tbaa !3
  %14 = call i64 @fread(ptr noundef nonnull %5, i64 noundef 1, i64 noundef 16, ptr noundef %13)
  %.not = icmp eq i64 %14, 16
  br i1 %.not, label %15, label %20

15:                                               ; preds = %12
  %bcmp = call i32 @bcmp(ptr noundef nonnull dereferenceable(8) %5, ptr noundef nonnull dereferenceable(8) @.str, i64 8)
  %.not10 = icmp eq i32 %bcmp, 0
  br i1 %.not10, label %16, label %20

16:                                               ; preds = %15
  %17 = getelementptr inbounds nuw i8, ptr %5, i64 8
  %.0.copyload.i = load i32, ptr %17, align 1
  store i32 %.0.copyload.i, ptr %1, align 4, !tbaa !8
  %18 = getelementptr inbounds nuw i8, ptr %5, i64 12
  %.0.copyload.i11 = load i32, ptr %18, align 1
  %19 = getelementptr inbounds nuw i8, ptr %1, i64 4
  store i32 %.0.copyload.i11, ptr %19, align 4, !tbaa !11
  br label %20

20:                                               ; preds = %15, %12, %3, %16
  %.0 = phi i32 [ 0, %16 ], [ -140, %3 ], [ -152, %12 ], [ -152, %15 ]
  call void @llvm.lifetime.end.p0(i64 16, ptr nonnull %5) #4
  call void @llvm.lifetime.end.p0(i64 25, ptr nonnull %4) #4
  ret i32 %.0
}